; Function Attrs: null_pointer_is_valid sspstrong uwtable
define internal i32 @dissect_h225_EnumeratedParameter(ptr noundef %0, i32 noundef %1, ptr noundef %2, ptr noundef %3, i32 noundef %4) #0 {
  %6 = getelementptr inbounds nuw i8, ptr %2, i64 16
  %7 = load ptr, ptr %6, align 8
  %8 = getelementptr inbounds nuw i8, ptr %7, i64 432
  %9 = load i32, ptr %8, align 8
  %10 = add i32 %9, 3
  store i32 %10, ptr %8, align 8
  %11 = load ptr, ptr %6, align 8
  tail call void @increment_dissection_depth(ptr noundef %11)
  %12 = getelementptr inbounds nuw i8, ptr %2, i64 48
  %13 = load ptr, ptr %12, align 8
  %14 = tail call ptr @gef_ctx_get(ptr noundef %13)
  %15 = load ptr, ptr %6, align 8
  %16 = getelementptr inbounds nuw i8, ptr %15, i64 408
  %17 = load ptr, ptr %16, align 8
  %18 = tail call ptr @gef_ctx_alloc(ptr noundef %17, ptr noundef %14, ptr noundef null)
  store ptr %18, ptr %12, align 8
  %19 = load i32, ptr @ett_h225_EnumeratedParameter, align 4
  %20 = tail call i32 @dissect_per_sequence(ptr noundef %0, i32 noundef %1, ptr noundef %2, ptr noundef %3, i32 noundef %4, i32 noundef %19, ptr noundef nonnull @EnumeratedParameter_sequence)
  %21 = load ptr, ptr %6, align 8
  %22 = getelementptr inbounds nuw i8, ptr %21, i64 432
  %23 = load i32, ptr %22, align 8
  %24 = add i32 %23, -3
  store i32 %24, ptr %22, align 8
  %25 = load ptr, ptr %6, align 8
  tail call void @decrement_dissection_depth(ptr noundef %25)
  store ptr %14, ptr %12, align 8
  ret i32 %20
}